; Function Attrs: mustprogress uwtable
define void @_ZN7testing8internal11CmpHelperEQEPKcS2_xx(ptr dead_on_unwind noalias writable sret(%"class.testing::AssertionResult") align 8 %0, ptr noundef %1, ptr noundef %2, i64 noundef %3, i64 noundef %4) local_unnamed_addr #4 personality ptr @__gxx_personality_v0 {
  %6 = alloca i64, align 8
  %7 = alloca i64, align 8
  %8 = alloca %"class.std::__cxx11::basic_string", align 8
  %9 = alloca %"class.std::__cxx11::basic_string", align 8
  store i64 %3, ptr %6, align 8, !tbaa !427
  store i64 %4, ptr %7, align 8, !tbaa !427
  %10 = icmp eq i64 %3, %4
  br i1 %10, label %11, label %13

11:                                               ; preds = %5
  store i8 1, ptr %0, align 8, !tbaa !201, !alias.scope !428
  %12 = getelementptr inbounds nuw i8, ptr %0, i64 8
  store ptr null, ptr %12, align 8, !tbaa !207, !alias.scope !428
  br label %43

13:                                               ; preds = %5
  call void @llvm.lifetime.start.p0(i64 32, ptr nonnull %8) #56
  call void @_ZN7testing13PrintToStringIxEENSt7__cxx1112basic_stringIcSt11char_traitsIcESaIcEEERKT_(ptr dead_on_unwind nonnull writable sret(%"class.std::__cxx11::basic_string") align 8 %8, ptr noundef nonnull align 8 dereferenceable(8) %6)
  call void @llvm.lifetime.start.p0(i64 32, ptr nonnull %9) #56
  invoke void @_ZN7testing13PrintToStringIxEENSt7__cxx1112basic_stringIcSt11char_traitsIcESaIcEEERKT_(ptr dead_on_unwind nonnull writable sret(%"class.std::__cxx11::basic_string") align 8 %9, ptr noundef nonnull align 8 dereferenceable(8) %7)
          to label %_ZN7testing8internal33FormatForComparisonFailureMessageIxxEENSt7__cxx1112basic_stringIcSt11char_traitsIcESaIcEEERKT_RKT0_.exit unwind label %27

_ZN7testing8internal33FormatForComparisonFailureMessageIxxEENSt7__cxx1112basic_stringIcSt11char_traitsIcESaIcEEERKT_RKT0_.exit: ; preds = %13
  invoke void @_ZN7testing8internal9EqFailureEPKcS2_RKNSt7__cxx1112basic_stringIcSt11char_traitsIcESaIcEEESA_b(ptr dead_on_unwind writable sret(%"class.testing::AssertionResult") align 8 %0, ptr noundef %1, ptr noundef %2, ptr noundef nonnull align 8 dereferenceable(32) %8, ptr noundef nonnull align 8 dereferenceable(32) %9, i1 noundef zeroext false)
          to label %14 unwind label %29

14:                                               ; preds = %_ZN7testing8internal33FormatForComparisonFailureMessageIxxEENSt7__cxx1112basic_stringIcSt11char_traitsIcESaIcEEERKT_RKT0_.exit
  %15 = load ptr, ptr %9, align 8, !tbaa !3
  %16 = getelementptr inbounds nuw i8, ptr %9, i64 16
  %17 = icmp eq ptr %15, %16
  br i1 %17, label %_ZNKSt7__cxx1112basic_stringIcSt11char_traitsIcESaIcEE11_M_is_localEv.exit.thread.i.i, label %_ZNKSt7__cxx1112basic_stringIcSt11char_traitsIcESaIcEE11_M_is_localEv.exit.i.i

_ZNKSt7__cxx1112basic_stringIcSt11char_traitsIcESaIcEE11_M_is_localEv.exit.thread.i.i: ; preds = %14
  %18 = getelementptr inbounds nuw i8, ptr %9, i64 8
  %19 = load i64, ptr %18, align 8, !tbaa !11
  %20 = icmp ult i64 %19, 16
  call void @llvm.assume(i1 %20)
  br label %_ZNSt7__cxx1112basic_stringIcSt11char_traitsIcESaIcEED2Ev.exit

_ZNKSt7__cxx1112basic_stringIcSt11char_traitsIcESaIcEE11_M_is_localEv.exit.i.i: ; preds = %14
  call void @_ZdlPv(ptr noundef %15) #57
  br label %_ZNSt7__cxx1112basic_stringIcSt11char_traitsIcESaIcEED2Ev.exit

_ZNSt7__cxx1112basic_stringIcSt11char_traitsIcESaIcEED2Ev.exit: ; preds = %_ZNKSt7__cxx1112basic_stringIcSt11char_traitsIcESaIcEE11_M_is_localEv.exit.thread.i.i, %_ZNKSt7__cxx1112basic_stringIcSt11char_traitsIcESaIcEE11_M_is_localEv.exit.i.i
  call void @llvm.lifetime.end.p0(i64 32, ptr nonnull %9) #56
  %21 = load ptr, ptr %8, align 8, !tbaa !3
  %22 = getelementptr inbounds nuw i8, ptr %8, i64 16
  %23 = icmp eq ptr %21, %22
  br i1 %23, label %_ZNKSt7__cxx1112basic_stringIcSt11char_traitsIcESaIcEE11_M_is_localEv.exit.thread.i.i6, label %_ZNKSt7__cxx1112basic_stringIcSt11char_traitsIcESaIcEE11_M_is_localEv.exit.i.i5

_ZNKSt7__cxx1112basic_stringIcSt11char_traitsIcESaIcEE11_M_is_localEv.exit.thread.i.i6: ; preds = %_ZNSt7__cxx1112basic_stringIcSt11char_traitsIcESaIcEED2Ev.exit
  %24 = getelementptr inbounds nuw i8, ptr %8, i64 8
  %25 = load i64, ptr %24, align 8, !tbaa !11
  %26 = icmp ult i64 %25, 16
  call void @llvm.assume(i1 %26)
  br label %_ZNSt7__cxx1112basic_stringIcSt11char_traitsIcESaIcEED2Ev.exit7

_ZNKSt7__cxx1112basic_stringIcSt11char_traitsIcESaIcEE11_M_is_localEv.exit.i.i5: ; preds = %_ZNSt7__cxx1112basic_stringIcSt11char_traitsIcESaIcEED2Ev.exit
  call void @_ZdlPv(ptr noundef %21) #57
  br label %_ZNSt7__cxx1112basic_stringIcSt11char_traitsIcESaIcEED2Ev.exit7

_ZNSt7__cxx1112basic_stringIcSt11char_traitsIcESaIcEED2Ev.exit7: ; preds = %_ZNKSt7__cxx1112basic_stringIcSt11char_traitsIcESaIcEE11_M_is_localEv.exit.thread.i.i6, %_ZNKSt7__cxx1112basic_stringIcSt11char_traitsIcESaIcEE11_M_is_localEv.exit.i.i5
  call void @llvm.lifetime.end.p0(i64 32, ptr nonnull %8) #56
  br label %43

27:                                               ; preds = %13
  %28 = landingpad { ptr, i32 }
          cleanup
  br label %_ZNSt7__cxx1112basic_stringIcSt11char_traitsIcESaIcEED2Ev.exit10

29:                                               ; preds = %_ZN7testing8internal33FormatForComparisonFailureMessageIxxEENSt7__cxx1112basic_stringIcSt11char_traitsIcESaIcEEERKT_RKT0_.exit
  %30 = landingpad { ptr, i32 }
          cleanup
  %31 = load ptr, ptr %9, align 8, !tbaa !3
  %32 = getelementptr inbounds nuw i8, ptr %9, i64 16
  %33 = icmp eq ptr %31, %32
  br i1 %33, label %_ZNKSt7__cxx1112basic_stringIcSt11char_traitsIcESaIcEE11_M_is_localEv.exit.thread.i.i9, label %_ZNKSt7__cxx1112basic_stringIcSt11char_traitsIcESaIcEE11_M_is_localEv.exit.i.i8

_ZNKSt7__cxx1112basic_stringIcSt11char_traitsIcESaIcEE11_M_is_localEv.exit.thread.i.i9: ; preds = %29
  %34 = getelementptr inbounds nuw i8, ptr %9, i64 8
  %35 = load i64, ptr %34, align 8, !tbaa !11
  %36 = icmp ult i64 %35, 16
  call void @llvm.assume(i1 %36)
  br label %_ZNSt7__cxx1112basic_stringIcSt11char_traitsIcESaIcEED2Ev.exit10

_ZNKSt7__cxx1112basic_stringIcSt11char_traitsIcESaIcEE11_M_is_localEv.exit.i.i8: ; preds = %29
  call void @_ZdlPv(ptr noundef %31) #57
  br label %_ZNSt7__cxx1112basic_stringIcSt11char_traitsIcESaIcEED2Ev.exit10

_ZNSt7__cxx1112basic_stringIcSt11char_traitsIcESaIcEED2Ev.exit10: ; preds = %_ZNKSt7__cxx1112basic_stringIcSt11char_traitsIcESaIcEE11_M_is_localEv.exit.i.i8, %_ZNKSt7__cxx1112basic_stringIcSt11char_traitsIcESaIcEE11_M_is_localEv.exit.thread.i.i9, %27
  %.pn = phi { ptr, i32 } [ %28, %27 ], [ %30, %_ZNKSt7__cxx1112basic_stringIcSt11char_traitsIcESaIcEE11_M_is_localEv.exit.thread.i.i9 ], [ %30, %_ZNKSt7__cxx1112basic_stringIcSt11char_traitsIcESaIcEE11_M_is_localEv.exit.i.i8 ]
  call void @llvm.lifetime.end.p0(i64 32, ptr nonnull %9) #56
  %37 = load ptr, ptr %8, align 8, !tbaa !3
  %38 = getelementptr inbounds nuw i8, ptr %8, i64 16
  %39 = icmp eq ptr %37, %38
  br i1 %39, label %_ZNKSt7__cxx1112basic_stringIcSt11char_traitsIcESaIcEE11_M_is_localEv.exit.thread.i.i12, label %_ZNKSt7__cxx1112basic_stringIcSt11char_traitsIcESaIcEE11_M_is_localEv.exit.i.i11

_ZNKSt7__cxx1112basic_stringIcSt11char_traitsIcESaIcEE11_M_is_localEv.exit.thread.i.i12: ; preds = %_ZNSt7__cxx1112basic_stringIcSt11char_traitsIcESaIcEED2Ev.exit10
  %40 = getelementptr inbounds nuw i8, ptr %8, i64 8
  %41 = load i64, ptr %40, align 8, !tbaa !11
  %42 = icmp ult i64 %41, 16
  call void @llvm.assume(i1 %42)
  br label %_ZNSt7__cxx1112basic_stringIcSt11char_traitsIcESaIcEED2Ev.exit13

_ZNKSt7__cxx1112basic_stringIcSt11char_traitsIcESaIcEE11_M_is_localEv.exit.i.i11: ; preds = %_ZNSt7__cxx1112basic_stringIcSt11char_traitsIcESaIcEED2Ev.exit10
  call void @_ZdlPv(ptr noundef %37) #57
  br label %_ZNSt7__cxx1112basic_stringIcSt11char_traitsIcESaIcEED2Ev.exit13

_ZNSt7__cxx1112basic_stringIcSt11char_traitsIcESaIcEED2Ev.exit13: ; preds = %_ZNKSt7__cxx1112basic_stringIcSt11char_traitsIcESaIcEE11_M_is_localEv.exit.thread.i.i12, %_ZNKSt7__cxx1112basic_stringIcSt11char_traitsIcESaIcEE11_M_is_localEv.exit.i.i11
  call void @llvm.lifetime.end.p0(i64 32, ptr nonnull %8) #56
  resume { ptr, i32 } %.pn

43:                                               ; preds = %_ZNSt7__cxx1112basic_stringIcSt11char_traitsIcESaIcEED2Ev.exit7, %11
  ret void
}